target datalayout = "e-m:e-p270:32:32-p271:32:32-p272:64:64-i64:64-i128:128-f80:128-n8:16:32:64-S128"
target triple = "x86_64-unknown-linux-gnu"

%class.anon.128 = type { i8 }

@_ZZN4pbrtL10parseFloatERKNS_5TokenEE7numTrue = internal thread_local global i64 0, align 8
@_ZZN4pbrtL10parseFloatERKNS_5TokenEE5total = internal thread_local global i64 0, align 8
@.str.299 = private unnamed_addr constant [171 x i8] c"generated/home/dtcxzyw/WorkSpace/Projects/compilers/llvm-opt-benchmark/bench/pbrt-v4/pbrt-v4/src/pbrt/parser.cpp 380: CHECK_RARE failed: t.token.size() + 1 >= sizeof(buf)\00", align 1

; Function Attrs: mustprogress uwtable
define internal void @"_ZZN4pbrtL10parseFloatERKNS_5TokenEENK3$_0clERNS_16StatsAccumulatorE"(ptr noundef nonnull align 1 dereferenceable(1) %this, ptr noundef nonnull align 8 dereferenceable(8) %accum) #1 align 2 {
entry:
  %this.addr = alloca ptr, align 8
  %accum.addr = alloca ptr, align 8
  store ptr %this, ptr %this.addr, align 8
  store ptr %accum, ptr %accum.addr, align 8
  %0 = load ptr, ptr %accum.addr, align 8
  %1 = call align 8 ptr @llvm.threadlocal.address.p0(ptr align 8 @_ZZN4pbrtL10parseFloatERKNS_5TokenEE7numTrue)
  %2 = load i64, ptr %1, align 8
  %3 = call align 8 ptr @llvm.threadlocal.address.p0(ptr align 8 @_ZZN4pbrtL10parseFloatERKNS_5TokenEE5total)
  %4 = load i64, ptr %3, align 8
  call void @_ZN4pbrt16StatsAccumulator15ReportRareCheckEPKcfll(ptr noundef nonnull align 8 dereferenceable(8) %0, ptr noundef @.str.299, float noundef 0x3EE4F8B580000000, i64 noundef %2, i64 noundef %4)
  %5 = call align 8 ptr @llvm.threadlocal.address.p0(ptr align 8 @_ZZN4pbrtL10parseFloatERKNS_5TokenEE5total)
  store i64 0, ptr %5, align 8
  %6 = call align 8 ptr @llvm.threadlocal.address.p0(ptr align 8 @_ZZN4pbrtL10parseFloatERKNS_5TokenEE7numTrue)
  store i64 0, ptr %6, align 8
  ret void
}

; Function Attrs: mustprogress uwtable
define internal void @"_ZZN4pbrtL10parseFloatERKNS_5TokenEEN3$_08__invokeERNS_16StatsAccumulatorE"(ptr noundef nonnull align 8 dereferenceable(8) %accum) #1 align 2 {
entry:
  %accum.addr = alloca ptr, align 8
  %unused.capture = alloca %class.anon.128, align 1
  store ptr %accum, ptr %accum.addr, align 8
  %0 = load ptr, ptr %accum.addr, align 8
  call void @"_ZZN4pbrtL10parseFloatERKNS_5TokenEENK3$_0clERNS_16StatsAccumulatorE"(ptr noundef nonnull align 1 dereferenceable(1) %unused.capture, ptr noundef nonnull align 8 dereferenceable(8) %0)
  ret void
}