; Function Attrs: mustprogress uwtable
define internal void @"_ZZN4pbrtL10parseFloatERKNS_5TokenEEN3$_08__invokeERNS_16StatsAccumulatorE"(ptr noundef nonnull align 8 dereferenceable(8) %accum) #3 align 2 {
entry:
  %0 = tail call align 8 ptr @llvm.threadlocal.address.p0(ptr align 8 @_ZZN4pbrtL10parseFloatERKNS_5TokenEE7numTrue)
  %1 = load i64, ptr %0, align 8
  %2 = tail call align 8 ptr @llvm.threadlocal.address.p0(ptr align 8 @_ZZN4pbrtL10parseFloatERKNS_5TokenEE5total)
  %3 = load i64, ptr %2, align 8
  tail call void @_ZN4pbrt16StatsAccumulator15ReportRareCheckEPKcfll(ptr noundef nonnull align 8 dereferenceable(8) %accum, ptr noundef nonnull @.str.299, float noundef 0x3EE4F8B580000000, i64 noundef %1, i64 noundef %3)
  store i64 0, ptr %2, align 8
  store i64 0, ptr %0, align 8
  ret void
}